; Function Attrs: mustprogress uwtable
define hidden noundef i32 @_ZNK14parametric_cmd13next_arg_kindER11cmd_context(ptr noundef nonnull align 8 dereferenceable(56) %0, ptr noundef nonnull align 8 dereferenceable(896) %1) unnamed_addr #3 align 2 {
  %3 = getelementptr inbounds nuw i8, ptr %0, i64 24
  %4 = load ptr, ptr %3, align 8, !tbaa !46
  %5 = load ptr, ptr @_ZN6symbol4nullE, align 8, !tbaa !46
  %6 = icmp eq ptr %4, %5
  br i1 %6, label %22, label %7

7:                                                ; preds = %2
  %8 = getelementptr inbounds nuw i8, ptr %0, i64 48
  %9 = load ptr, ptr %8, align 8, !tbaa !26
  %.not.i = icmp eq ptr %9, null
  br i1 %.not.i, label %10, label %_ZNK14parametric_cmd7pdescrsER11cmd_context.exit

10:                                               ; preds = %7
  %11 = tail call noalias noundef ptr @_ZN6memory8allocateEm(i64 noundef 8)
  tail call void @_ZN12param_descrsC1Ev(ptr noundef nonnull align 8 dereferenceable(8) %11)
  %12 = load ptr, ptr %8, align 8, !tbaa !26
  %.not.i.i = icmp eq ptr %12, %11
  br i1 %.not.i.i, label %_ZN10scoped_ptrI12param_descrsEaSEPS0_.exit.i, label %13

13:                                               ; preds = %10
  %14 = icmp eq ptr %12, null
  br i1 %14, label %_Z7deallocI12param_descrsEvPT_.exit.i.i, label %15

15:                                               ; preds = %13
  tail call void @_ZN12param_descrsD1Ev(ptr noundef nonnull align 8 dereferenceable(8) %12) #21
  tail call void @_ZN6memory10deallocateEPv(ptr noundef nonnull %12)
  br label %_Z7deallocI12param_descrsEvPT_.exit.i.i

_Z7deallocI12param_descrsEvPT_.exit.i.i:          ; preds = %15, %13
  store ptr %11, ptr %8, align 8, !tbaa !26
  br label %_ZN10scoped_ptrI12param_descrsEaSEPS0_.exit.i

_ZN10scoped_ptrI12param_descrsEaSEPS0_.exit.i:    ; preds = %_Z7deallocI12param_descrsEvPT_.exit.i.i, %10
  %16 = phi ptr [ %12, %10 ], [ %11, %_Z7deallocI12param_descrsEvPT_.exit.i.i ]
  %17 = load ptr, ptr %0, align 8, !tbaa !22
  %18 = getelementptr inbounds nuw i8, ptr %17, i64 224
  %19 = load ptr, ptr %18, align 8
  tail call void %19(ptr noundef nonnull align 8 dereferenceable(56) %0, ptr noundef nonnull align 8 dereferenceable(896) %1, ptr noundef nonnull align 8 dereferenceable(8) %16)
  %.pre.i = load ptr, ptr %8, align 8, !tbaa !26
  br label %_ZNK14parametric_cmd7pdescrsER11cmd_context.exit

_ZNK14parametric_cmd7pdescrsER11cmd_context.exit: ; preds = %7, %_ZN10scoped_ptrI12param_descrsEaSEPS0_.exit.i
  %20 = phi ptr [ %.pre.i, %_ZN10scoped_ptrI12param_descrsEaSEPS0_.exit.i ], [ %9, %7 ]
  %21 = tail call noundef i32 @_ZNK12param_descrs8get_kindERK6symbol(ptr noundef nonnull align 8 dereferenceable(8) %20, ptr noundef nonnull align 8 dereferenceable(8) %3)
  br label %22

22:                                               ; preds = %2, %_ZNK14parametric_cmd7pdescrsER11cmd_context.exit
  %.0 = phi i32 [ %21, %_ZNK14parametric_cmd7pdescrsER11cmd_context.exit ], [ 7, %2 ]
  ret i32 %.0
}